(lp0
S'Machine'
p1
aS'SizeOfOptionalHeader'
p2
aS'Characteristics'
p3
aS'MinorLinkerVersion'
p4
aS'ImageBase'
p5
aS'MajorSubsystemVersion'
p6
aS'Subsystem'
p7
aS'DllCharacteristics'
p8
aS'SectionsMaxEntropy'
p9
aS'ResourcesMinEntropy'
p10
aS'ResourcesMaxEntropy'
p11
aS'VersionInformationSize'
p12
a.